; Function Attrs: cold nounwind optsize uwtable
define internal range(i32 -1094995529, 1) i32 @qtrle_decode_init(ptr noundef %0) #0 {
  %2 = getelementptr inbounds nuw i8, ptr %0, i64 32
  %3 = load ptr, ptr %2, align 8, !tbaa !4
  store ptr %0, ptr %3, align 8, !tbaa !27
  %4 = getelementptr inbounds nuw i8, ptr %0, i64 648
  %5 = load i32, ptr %4, align 8, !tbaa !32
  switch i32 %5, label %9 [
    i32 1, label %10
    i32 2, label %10
    i32 4, label %10
    i32 8, label %10
    i32 33, label %10
    i32 34, label %10
    i32 36, label %10
    i32 40, label %10
    i32 16, label %6
    i32 24, label %7
    i32 32, label %8
  ]

6:                                                ; preds = %1
  br label %10

7:                                                ; preds = %1
  br label %10

8:                                                ; preds = %1
  br label %10

9:                                                ; preds = %1
  tail call void (ptr, i32, ptr, ...) @av_log(ptr noundef nonnull %0, i32 noundef 16, ptr noundef nonnull @.str.2, i32 noundef %5) #8
  br label %14

10:                                               ; preds = %1, %1, %1, %1, %1, %1, %1, %1, %8, %7, %6
  %.sink = phi i32 [ 25, %8 ], [ 2, %7 ], [ 39, %6 ], [ 11, %1 ], [ 11, %1 ], [ 11, %1 ], [ 11, %1 ], [ 11, %1 ], [ 11, %1 ], [ 11, %1 ], [ 11, %1 ]
  %11 = getelementptr inbounds nuw i8, ptr %0, i64 136
  store i32 %.sink, ptr %11, align 8, !tbaa !33
  %12 = tail call ptr @av_frame_alloc() #8
  %13 = getelementptr inbounds nuw i8, ptr %3, i64 8
  store ptr %12, ptr %13, align 8, !tbaa !34
  %.not = icmp eq ptr %12, null
  %. = select i1 %.not, i32 -12, i32 0
  br label %14

14:                                               ; preds = %10, %9
  %.0 = phi i32 [ -1094995529, %9 ], [ %., %10 ]
  ret i32 %.0
}